target datalayout = "e-m:e-p270:32:32-p271:32:32-p272:64:64-i64:64-i128:128-f80:128-n8:16:32:64-S128"
target triple = "x86_64-pc-linux-gnu"

%struct.MultiXactMember = type { i32, i32 }

; Function Attrs: nounwind uwtable
define internal i32 @mxactMemberComparator(ptr noundef %0, ptr noundef %1) #0 {
  %3 = alloca i32, align 4
  %4 = alloca ptr, align 8
  %5 = alloca ptr, align 8
  %6 = alloca %struct.MultiXactMember, align 4
  %7 = alloca %struct.MultiXactMember, align 4
  %8 = alloca i32, align 4
  store ptr %0, ptr %4, align 8
  store ptr %1, ptr %5, align 8
  call void @llvm.lifetime.start.p0(i64 8, ptr %6) #9
  %9 = load ptr, ptr %4, align 8
  call void @llvm.memcpy.p0.p0.i64(ptr align 4 %6, ptr align 4 %9, i64 8, i1 false)
  call void @llvm.lifetime.start.p0(i64 8, ptr %7) #9
  %10 = load ptr, ptr %5, align 8
  call void @llvm.memcpy.p0.p0.i64(ptr align 4 %7, ptr align 4 %10, i64 8, i1 false)
  %11 = getelementptr inbounds nuw %struct.MultiXactMember, ptr %6, i32 0, i32 0
  %12 = load i32, ptr %11, align 4
  %13 = getelementptr inbounds nuw %struct.MultiXactMember, ptr %7, i32 0, i32 0
  %14 = load i32, ptr %13, align 4
  %15 = icmp ugt i32 %12, %14
  br i1 %15, label %16, label %17

16:                                               ; preds = %2
  store i32 1, ptr %3, align 4
  store i32 1, ptr %8, align 4
  br label %39

17:                                               ; preds = %2
  %18 = getelementptr inbounds nuw %struct.MultiXactMember, ptr %6, i32 0, i32 0
  %19 = load i32, ptr %18, align 4
  %20 = getelementptr inbounds nuw %struct.MultiXactMember, ptr %7, i32 0, i32 0
  %21 = load i32, ptr %20, align 4
  %22 = icmp ult i32 %19, %21
  br i1 %22, label %23, label %24

23:                                               ; preds = %17
  store i32 -1, ptr %3, align 4
  store i32 1, ptr %8, align 4
  br label %39

24:                                               ; preds = %17
  %25 = getelementptr inbounds nuw %struct.MultiXactMember, ptr %6, i32 0, i32 1
  %26 = load i32, ptr %25, align 4
  %27 = getelementptr inbounds nuw %struct.MultiXactMember, ptr %7, i32 0, i32 1
  %28 = load i32, ptr %27, align 4
  %29 = icmp ugt i32 %26, %28
  br i1 %29, label %30, label %31

30:                                               ; preds = %24
  store i32 1, ptr %3, align 4
  store i32 1, ptr %8, align 4
  br label %39

31:                                               ; preds = %24
  %32 = getelementptr inbounds nuw %struct.MultiXactMember, ptr %6, i32 0, i32 1
  %33 = load i32, ptr %32, align 4
  %34 = getelementptr inbounds nuw %struct.MultiXactMember, ptr %7, i32 0, i32 1
  %35 = load i32, ptr %34, align 4
  %36 = icmp ult i32 %33, %35
  br i1 %36, label %37, label %38

37:                                               ; preds = %31
  store i32 -1, ptr %3, align 4
  store i32 1, ptr %8, align 4
  br label %39

38:                                               ; preds = %31
  store i32 0, ptr %3, align 4
  store i32 1, ptr %8, align 4
  br label %39

39:                                               ; preds = %38, %37, %30, %23, %16
  call void @llvm.lifetime.end.p0(i64 8, ptr %7) #9
  call void @llvm.lifetime.end.p0(i64 8, ptr %6) #9
  %40 = load i32, ptr %3, align 4
  ret i32 %40
}