; Function Attrs: mustprogress nofree norecurse nosync nounwind willreturn memory(argmem: read) uwtable
define internal range(i32 -1, 2) i32 @mxactMemberComparator(ptr noundef readonly captures(none) %0, ptr noundef readonly captures(none) %1) #9 {
  %.sroa.03.0.copyload = load i32, ptr %0, align 4
  %.sroa.55.0..sroa_idx = getelementptr inbounds nuw i8, ptr %0, i64 4
  %.sroa.55.0.copyload = load i32, ptr %.sroa.55.0..sroa_idx, align 4
  %.sroa.0.0.copyload = load i32, ptr %1, align 4
  %.sroa.5.0..sroa_idx = getelementptr inbounds nuw i8, ptr %1, i64 4
  %.sroa.5.0.copyload = load i32, ptr %.sroa.5.0..sroa_idx, align 4
  %3 = icmp ugt i32 %.sroa.03.0.copyload, %.sroa.0.0.copyload
  br i1 %3, label %10, label %4

4:                                                ; preds = %2
  %5 = icmp ult i32 %.sroa.03.0.copyload, %.sroa.0.0.copyload
  br i1 %5, label %10, label %6

6:                                                ; preds = %4
  %7 = icmp ugt i32 %.sroa.55.0.copyload, %.sroa.5.0.copyload
  br i1 %7, label %10, label %8

8:                                                ; preds = %6
  %9 = icmp ult i32 %.sroa.55.0.copyload, %.sroa.5.0.copyload
  %. = sext i1 %9 to i32
  br label %10

10:                                               ; preds = %8, %6, %4, %2
  %.0 = phi i32 [ 1, %2 ], [ -1, %4 ], [ 1, %6 ], [ %., %8 ]
  ret i32 %.0
}